; Function Attrs: mustprogress uwtable
define void @_ZN7rocksdb22OnDemandSequentialFile4SkipEm(ptr dead_on_unwind noalias writable sret(%"class.rocksdb::IOStatus") align 8 %0, ptr noundef nonnull align 8 captures(none) dereferenceable(216) %1, i64 noundef %2) unnamed_addr #0 align 2 personality ptr @__gxx_personality_v0 {
  %4 = getelementptr inbounds nuw i8, ptr %1, i64 8
  %5 = load ptr, ptr %4, align 8, !tbaa !73
  %6 = load ptr, ptr %5, align 8, !tbaa !60
  %7 = getelementptr inbounds nuw i8, ptr %6, i64 24
  %8 = load ptr, ptr %7, align 8
  tail call void %8(ptr dead_on_unwind writable sret(%"class.rocksdb::IOStatus") align 8 %0, ptr noundef nonnull align 8 dereferenceable(8) %5, i64 noundef %2)
  %9 = load i8, ptr %0, align 8, !tbaa !38
  %10 = icmp eq i8 %9, 0
  br i1 %10, label %11, label %15

11:                                               ; preds = %3
  %12 = getelementptr inbounds nuw i8, ptr %1, i64 208
  %13 = load i64, ptr %12, align 8, !tbaa !112
  %14 = add i64 %13, %2
  store i64 %14, ptr %12, align 8, !tbaa !112
  br label %15

15:                                               ; preds = %3, %11
  ret void
}